; Function Attrs: mustprogress uwtable
define noundef zeroext i1 @_ZN5draco37SequentialAttributeEncodersController16EncodeAttributesEPNS_13EncoderBufferE(ptr noundef nonnull align 8 dereferenceable(168) %0, ptr noundef %1) unnamed_addr #3 align 2 {
  %3 = getelementptr inbounds nuw i8, ptr %0, i64 160
  %4 = load ptr, ptr %3, align 8, !tbaa !13
  %.not = icmp eq ptr %4, null
  br i1 %.not, label %_ZN5draco17AttributesEncoder16EncodeAttributesEPNS_13EncoderBufferE.exit, label %5

5:                                                ; preds = %2
  %6 = getelementptr inbounds nuw i8, ptr %0, i64 136
  %7 = getelementptr inbounds nuw i8, ptr %4, i64 8
  store ptr %6, ptr %7, align 8, !tbaa !47
  %8 = load ptr, ptr %4, align 8, !tbaa !3
  %9 = getelementptr inbounds nuw i8, ptr %8, i64 24
  %10 = load ptr, ptr %9, align 8
  %11 = tail call noundef zeroext i1 %10(ptr noundef nonnull align 8 dereferenceable(16) %4)
  br i1 %11, label %12, label %_ZN5draco17AttributesEncoder16EncodeAttributesEPNS_13EncoderBufferE.exit

12:                                               ; preds = %5
  %13 = load ptr, ptr %0, align 8, !tbaa !3
  %14 = getelementptr inbounds nuw i8, ptr %13, i64 80
  %15 = load ptr, ptr %14, align 8
  %16 = tail call noundef zeroext i1 %15(ptr noundef nonnull align 8 dereferenceable(72) %0)
  br i1 %16, label %17, label %_ZN5draco17AttributesEncoder16EncodeAttributesEPNS_13EncoderBufferE.exit

17:                                               ; preds = %12
  %18 = load ptr, ptr %0, align 8, !tbaa !3
  %19 = getelementptr inbounds nuw i8, ptr %18, i64 88
  %20 = load ptr, ptr %19, align 8
  %21 = tail call noundef zeroext i1 %20(ptr noundef nonnull align 8 dereferenceable(72) %0, ptr noundef %1)
  br i1 %21, label %22, label %_ZN5draco17AttributesEncoder16EncodeAttributesEPNS_13EncoderBufferE.exit

22:                                               ; preds = %17
  %23 = load ptr, ptr %0, align 8, !tbaa !3
  %24 = getelementptr inbounds nuw i8, ptr %23, i64 96
  %25 = load ptr, ptr %24, align 8
  %26 = tail call noundef zeroext i1 %25(ptr noundef nonnull align 8 dereferenceable(72) %0, ptr noundef %1)
  br label %_ZN5draco17AttributesEncoder16EncodeAttributesEPNS_13EncoderBufferE.exit

_ZN5draco17AttributesEncoder16EncodeAttributesEPNS_13EncoderBufferE.exit: ; preds = %22, %17, %12, %2, %5
  %.0 = phi i1 [ false, %5 ], [ false, %2 ], [ false, %12 ], [ false, %17 ], [ %26, %22 ]
  ret i1 %.0
}